target datalayout = "e-m:e-p270:32:32-p271:32:32-p272:64:64-i64:64-i128:128-f80:128-n8:16:32:64-S128"
target triple = "x86_64-pc-linux-gnu"

%"struct.osgeo::proj::ExtentAndRes" = type { i8, double, double, double, double, double, double, double, double }

; Function Attrs: mustprogress nounwind uwtable
define hidden noundef zeroext i1 @_ZNK5osgeo4proj12ExtentAndRes10intersectsERKS1_(ptr noundef nonnull align 8 dereferenceable(72) %0, ptr noundef nonnull align 8 dereferenceable(72) %1) #0 align 2 {
  %3 = alloca ptr, align 8
  %4 = alloca ptr, align 8
  store ptr %0, ptr %3, align 8, !tbaa !3
  store ptr %1, ptr %4, align 8, !tbaa !3
  %5 = load ptr, ptr %3, align 8
  %6 = load ptr, ptr %4, align 8, !tbaa !3
  %7 = getelementptr inbounds nuw %"struct.osgeo::proj::ExtentAndRes", ptr %6, i32 0, i32 1
  %8 = load double, ptr %7, align 8, !tbaa !19
  %9 = getelementptr inbounds nuw %"struct.osgeo::proj::ExtentAndRes", ptr %5, i32 0, i32 3
  %10 = load double, ptr %9, align 8, !tbaa !18
  %11 = fcmp olt double %8, %10
  br i1 %11, label %12, label %33

12:                                               ; preds = %2
  %13 = getelementptr inbounds nuw %"struct.osgeo::proj::ExtentAndRes", ptr %5, i32 0, i32 1
  %14 = load double, ptr %13, align 8, !tbaa !19
  %15 = load ptr, ptr %4, align 8, !tbaa !3
  %16 = getelementptr inbounds nuw %"struct.osgeo::proj::ExtentAndRes", ptr %15, i32 0, i32 1
  %17 = load double, ptr %16, align 8, !tbaa !19
  %18 = fcmp ole double %14, %17
  br i1 %18, label %19, label %33

19:                                               ; preds = %12
  %20 = load ptr, ptr %4, align 8, !tbaa !3
  %21 = getelementptr inbounds nuw %"struct.osgeo::proj::ExtentAndRes", ptr %20, i32 0, i32 2
  %22 = load double, ptr %21, align 8, !tbaa !20
  %23 = getelementptr inbounds nuw %"struct.osgeo::proj::ExtentAndRes", ptr %5, i32 0, i32 4
  %24 = load double, ptr %23, align 8, !tbaa !21
  %25 = fcmp olt double %22, %24
  br i1 %25, label %26, label %33

26:                                               ; preds = %19
  %27 = getelementptr inbounds nuw %"struct.osgeo::proj::ExtentAndRes", ptr %5, i32 0, i32 2
  %28 = load double, ptr %27, align 8, !tbaa !20
  %29 = load ptr, ptr %4, align 8, !tbaa !3
  %30 = getelementptr inbounds nuw %"struct.osgeo::proj::ExtentAndRes", ptr %29, i32 0, i32 4
  %31 = load double, ptr %30, align 8, !tbaa !21
  %32 = fcmp ole double %28, %31
  br label %33

33:                                               ; preds = %26, %19, %12, %2
  %34 = phi i1 [ false, %19 ], [ false, %12 ], [ false, %2 ], [ %32, %26 ]
  ret i1 %34
}