; Function Attrs: mustprogress nofree norecurse nosync nounwind willreturn memory(argmem: read) uwtable
define hidden noundef zeroext i1 @_ZNK5osgeo4proj12ExtentAndRes10intersectsERKS1_(ptr noundef nonnull readonly align 8 captures(none) dereferenceable(72) %0, ptr noundef nonnull readonly align 8 captures(none) dereferenceable(72) %1) local_unnamed_addr #1 align 2 {
  %3 = getelementptr inbounds nuw i8, ptr %1, i64 8
  %4 = load double, ptr %3, align 8, !tbaa !16
  %5 = getelementptr inbounds nuw i8, ptr %0, i64 24
  %6 = load double, ptr %5, align 8, !tbaa !15
  %7 = fcmp uge double %4, %6
  %8 = getelementptr inbounds nuw i8, ptr %0, i64 8
  %9 = load double, ptr %8, align 8
  %10 = fcmp ugt double %9, %4
  %or.cond = select i1 %7, i1 true, i1 %10
  br i1 %or.cond, label %23, label %11

11:                                               ; preds = %2
  %12 = getelementptr inbounds nuw i8, ptr %1, i64 16
  %13 = load double, ptr %12, align 8, !tbaa !17
  %14 = getelementptr inbounds nuw i8, ptr %0, i64 32
  %15 = load double, ptr %14, align 8, !tbaa !18
  %16 = fcmp olt double %13, %15
  br i1 %16, label %17, label %23

17:                                               ; preds = %11
  %18 = getelementptr inbounds nuw i8, ptr %0, i64 16
  %19 = load double, ptr %18, align 8, !tbaa !17
  %20 = getelementptr inbounds nuw i8, ptr %1, i64 32
  %21 = load double, ptr %20, align 8, !tbaa !18
  %22 = fcmp ole double %19, %21
  br label %23

23:                                               ; preds = %17, %11, %2
  %24 = phi i1 [ false, %11 ], [ false, %2 ], [ %22, %17 ]
  ret i1 %24
}